; Function Attrs: mustprogress nounwind uwtable
define hidden void @_ZNK14XPageAllocator10threads_doEP13ThreadClosure(ptr nocapture noundef nonnull readonly align 8 dereferenceable(609) %0, ptr noundef %1) local_unnamed_addr #1 align 2 {
  %3 = getelementptr inbounds i8, ptr %0, i64 520
  %4 = load ptr, ptr %3, align 8
  %5 = load ptr, ptr %1, align 8
  %6 = load ptr, ptr %5, align 8
  tail call void %6(ptr noundef nonnull align 8 dereferenceable(8) %1, ptr noundef %4) #14
  %7 = getelementptr inbounds i8, ptr %0, i64 528
  %8 = load ptr, ptr %7, align 8
  %9 = load ptr, ptr %1, align 8
  %10 = load ptr, ptr %9, align 8
  tail call void %10(ptr noundef nonnull align 8 dereferenceable(8) %1, ptr noundef %8) #14
  ret void
}